; Function Attrs: mustprogress null_pointer_is_valid sspstrong uwtable
define void @_ZN17PathSelectionEditC2EP7QWidget(ptr noundef align 8 dereferenceable_or_null(112) %0, ptr noundef %1) unnamed_addr #0 align 2 personality ptr @__gxx_personality_v0 {
  %3 = alloca %class.QString, align 8
  %4 = alloca %class.QString, align 8
  call void @_ZNK11QMetaObject2trEPKcS1_i(ptr dead_on_unwind nonnull writable sret(%class.QString) align 8 %3, ptr noundef nonnull align 8 dereferenceable_or_null(56) @_ZN17PathSelectionEdit16staticMetaObjectE, ptr noundef nonnull @.str.1, ptr noundef null, i32 noundef -1)
  call void @llvm.memset.p0.i64(ptr noundef nonnull align 8 dereferenceable(24) dereferenceable_or_null(24) %4, i8 0, i64 24, i1 false)
  invoke void @_ZN17PathSelectionEditC2E7QStringS0_bP7QWidget(ptr noundef align 8 dereferenceable_or_null(112) %0, ptr noundef nonnull %3, ptr noundef nonnull %4, i1 noundef zeroext true, ptr noundef %1)
          to label %5 unwind label %14

5:                                                ; preds = %2
  %6 = load ptr, ptr %4, align 8
  %.not.i.i.i = icmp eq ptr %6, null
  br i1 %.not.i.i.i, label %_ZN7QStringD2Ev.exit, label %_ZN17QArrayDataPointerIDsE5derefEv.exit.i.i

_ZN17QArrayDataPointerIDsE5derefEv.exit.i.i:      ; preds = %5
  %7 = atomicrmw sub ptr %6, i32 1 seq_cst, align 4
  %.not.i.i = icmp eq i32 %7, 1
  br i1 %.not.i.i, label %8, label %_ZN7QStringD2Ev.exit

8:                                                ; preds = %_ZN17QArrayDataPointerIDsE5derefEv.exit.i.i
  %9 = load ptr, ptr %4, align 8
  call void @_ZN10QArrayData10deallocateEPS_xx(ptr noundef %9, i64 noundef 2, i64 noundef 8) #9
  br label %_ZN7QStringD2Ev.exit

_ZN7QStringD2Ev.exit:                             ; preds = %5, %_ZN17QArrayDataPointerIDsE5derefEv.exit.i.i, %8
  %10 = load ptr, ptr %3, align 8
  %.not.i.i.i3 = icmp eq ptr %10, null
  br i1 %.not.i.i.i3, label %_ZN7QStringD2Ev.exit6, label %_ZN17QArrayDataPointerIDsE5derefEv.exit.i.i4

_ZN17QArrayDataPointerIDsE5derefEv.exit.i.i4:     ; preds = %_ZN7QStringD2Ev.exit
  %11 = atomicrmw sub ptr %10, i32 1 seq_cst, align 4
  %.not.i.i5 = icmp eq i32 %11, 1
  br i1 %.not.i.i5, label %12, label %_ZN7QStringD2Ev.exit6

12:                                               ; preds = %_ZN17QArrayDataPointerIDsE5derefEv.exit.i.i4
  %13 = load ptr, ptr %3, align 8
  call void @_ZN10QArrayData10deallocateEPS_xx(ptr noundef %13, i64 noundef 2, i64 noundef 8) #9
  br label %_ZN7QStringD2Ev.exit6

_ZN7QStringD2Ev.exit6:                            ; preds = %_ZN7QStringD2Ev.exit, %_ZN17QArrayDataPointerIDsE5derefEv.exit.i.i4, %12
  ret void

14:                                               ; preds = %2
  %15 = landingpad { ptr, i32 }
          cleanup
  %16 = load ptr, ptr %4, align 8
  %.not.i.i.i7 = icmp eq ptr %16, null
  br i1 %.not.i.i.i7, label %_ZN7QStringD2Ev.exit10, label %_ZN17QArrayDataPointerIDsE5derefEv.exit.i.i8

_ZN17QArrayDataPointerIDsE5derefEv.exit.i.i8:     ; preds = %14
  %17 = atomicrmw sub ptr %16, i32 1 seq_cst, align 4
  %.not.i.i9 = icmp eq i32 %17, 1
  br i1 %.not.i.i9, label %18, label %_ZN7QStringD2Ev.exit10

18:                                               ; preds = %_ZN17QArrayDataPointerIDsE5derefEv.exit.i.i8
  %19 = load ptr, ptr %4, align 8
  call void @_ZN10QArrayData10deallocateEPS_xx(ptr noundef %19, i64 noundef 2, i64 noundef 8) #9
  br label %_ZN7QStringD2Ev.exit10

_ZN7QStringD2Ev.exit10:                           ; preds = %14, %_ZN17QArrayDataPointerIDsE5derefEv.exit.i.i8, %18
  %20 = load ptr, ptr %3, align 8
  %.not.i.i.i11 = icmp eq ptr %20, null
  br i1 %.not.i.i.i11, label %_ZN7QStringD2Ev.exit14, label %_ZN17QArrayDataPointerIDsE5derefEv.exit.i.i12

_ZN17QArrayDataPointerIDsE5derefEv.exit.i.i12:    ; preds = %_ZN7QStringD2Ev.exit10
  %21 = atomicrmw sub ptr %20, i32 1 seq_cst, align 4
  %.not.i.i13 = icmp eq i32 %21, 1
  br i1 %.not.i.i13, label %22, label %_ZN7QStringD2Ev.exit14

22:                                               ; preds = %_ZN17QArrayDataPointerIDsE5derefEv.exit.i.i12
  %23 = load ptr, ptr %3, align 8
  call void @_ZN10QArrayData10deallocateEPS_xx(ptr noundef %23, i64 noundef 2, i64 noundef 8) #9
  br label %_ZN7QStringD2Ev.exit14

_ZN7QStringD2Ev.exit14:                           ; preds = %_ZN7QStringD2Ev.exit10, %_ZN17QArrayDataPointerIDsE5derefEv.exit.i.i12, %22
  resume { ptr, i32 } %15
}